target datalayout = "e-m:e-p270:32:32-p271:32:32-p272:64:64-i64:64-i128:128-f80:128-n8:16:32:64-S128"
target triple = "x86_64-unknown-linux-gnu"

%struct.BDRVQEDState = type { ptr, %struct.QEDHeader, %struct.CoMutex, ptr, %struct.L2TableCache, i32, i32, i32, i32, i64, ptr, %struct.CoQueue, i8, ptr }
%struct.QEDHeader = type { i32, i32, i32, i32, i64, i64, i64, i64, i64, i32, i32 }
%struct.CoMutex = type { i32, ptr, %struct.anon, %struct.anon, i32, i32, ptr }
%struct.anon = type { ptr }
%struct.L2TableCache = type { %union.anon, i32 }
%union.anon = type { %struct.QTailQLink }
%struct.QTailQLink = type { ptr, ptr }
%struct.CoQueue = type { %struct.anon.0 }
%struct.anon.0 = type { ptr, ptr }
%struct.BdrvCheckResult = type { i32, i32, i32, i32, i32, i64, %struct.BlockFragInfo }
%struct.BlockFragInfo = type { i64, i64, i64, i64 }

; Function Attrs: nounwind sspstrong uwtable
define internal void @qed_check_mark_clean(ptr noundef %s, ptr noundef %result) #0 {
entry:
  %s.addr = alloca ptr, align 8
  %result.addr = alloca ptr, align 8
  store ptr %s, ptr %s.addr, align 8
  store ptr %result, ptr %result.addr, align 8
  %0 = load ptr, ptr %result.addr, align 8
  %corruptions = getelementptr inbounds %struct.BdrvCheckResult, ptr %0, i32 0, i32 0
  %1 = load i32, ptr %corruptions, align 8
  %cmp = icmp sgt i32 %1, 0
  br i1 %cmp, label %if.then, label %lor.lhs.false

lor.lhs.false:                                    ; preds = %entry
  %2 = load ptr, ptr %result.addr, align 8
  %check_errors = getelementptr inbounds %struct.BdrvCheckResult, ptr %2, i32 0, i32 2
  %3 = load i32, ptr %check_errors, align 8
  %cmp1 = icmp sgt i32 %3, 0
  br i1 %cmp1, label %if.then, label %if.end

if.then:                                          ; preds = %lor.lhs.false, %entry
  br label %return

if.end:                                           ; preds = %lor.lhs.false
  %4 = load ptr, ptr %s.addr, align 8
  %header = getelementptr inbounds %struct.BDRVQEDState, ptr %4, i32 0, i32 1
  %features = getelementptr inbounds %struct.QEDHeader, ptr %header, i32 0, i32 4
  %5 = load i64, ptr %features, align 8
  %and = and i64 %5, 2
  %tobool = icmp ne i64 %and, 0
  br i1 %tobool, label %if.end3, label %if.then2

if.then2:                                         ; preds = %if.end
  br label %return

if.end3:                                          ; preds = %if.end
  %6 = load ptr, ptr %s.addr, align 8
  %bs = getelementptr inbounds %struct.BDRVQEDState, ptr %6, i32 0, i32 0
  %7 = load ptr, ptr %bs, align 8
  %call = call i32 @bdrv_co_flush(ptr noundef %7)
  %8 = load ptr, ptr %s.addr, align 8
  %header4 = getelementptr inbounds %struct.BDRVQEDState, ptr %8, i32 0, i32 1
  %features5 = getelementptr inbounds %struct.QEDHeader, ptr %header4, i32 0, i32 4
  %9 = load i64, ptr %features5, align 8
  %and6 = and i64 %9, -3
  store i64 %and6, ptr %features5, align 8
  %10 = load ptr, ptr %s.addr, align 8
  %call7 = call i32 @qed_write_header_sync(ptr noundef %10)
  br label %return

return:                                           ; preds = %if.end3, %if.then2, %if.then
  ret void
}