; Function Attrs: nounwind sspstrong uwtable
define internal void @qed_check_mark_clean(ptr noundef %s, ptr noundef readonly captures(none) %result) #0 {
entry:
  %0 = load i32, ptr %result, align 8
  %cmp = icmp sgt i32 %0, 0
  br i1 %cmp, label %return, label %lor.lhs.false

lor.lhs.false:                                    ; preds = %entry
  %check_errors = getelementptr inbounds nuw i8, ptr %result, i64 8
  %1 = load i32, ptr %check_errors, align 8
  %cmp1 = icmp sgt i32 %1, 0
  br i1 %cmp1, label %return, label %if.end

if.end:                                           ; preds = %lor.lhs.false
  %features = getelementptr inbounds nuw i8, ptr %s, i64 24
  %2 = load i64, ptr %features, align 8
  %and = and i64 %2, 2
  %tobool.not = icmp eq i64 %and, 0
  br i1 %tobool.not, label %return, label %if.end3

if.end3:                                          ; preds = %if.end
  %3 = load ptr, ptr %s, align 8
  %call = tail call i32 @bdrv_co_flush(ptr noundef %3) #4
  %4 = load i64, ptr %features, align 8
  %and6 = and i64 %4, -3
  store i64 %and6, ptr %features, align 8
  %call7 = tail call i32 @qed_write_header_sync(ptr noundef nonnull %s) #4
  br label %return

return:                                           ; preds = %if.end, %entry, %lor.lhs.false, %if.end3
  ret void
}